; Function Attrs: mustprogress uwtable
define internal void @_ZN12_GLOBAL__N_18GridTest5SetUpEv(ptr noundef nonnull writeonly align 8 captures(none) dereferenceable(32) initializes((16, 32)) %0) unnamed_addr #4 align 2 {
  %2 = tail call ptr @proj_context_create()
  %3 = getelementptr inbounds nuw i8, ptr %0, i64 16
  store ptr %2, ptr %3, align 8, !tbaa !7
  tail call void @proj_log_func(ptr noundef %2, ptr noundef null, ptr noundef nonnull @_ZN12_GLOBAL__N_18GridTest16DummyLogFunctionEPviPKc)
  %4 = tail call ptr @proj_context_create()
  %5 = getelementptr inbounds nuw i8, ptr %0, i64 24
  store ptr %4, ptr %5, align 8, !tbaa !20
  tail call void @proj_log_func(ptr noundef %4, ptr noundef null, ptr noundef nonnull @_ZN12_GLOBAL__N_18GridTest16DummyLogFunctionEPviPKc)
  ret void
}